; Function Attrs: nounwind uwtable
define range(i32 -1, 1) i32 @H5Pget_userblock(i64 noundef %0, ptr noundef %1) local_unnamed_addr #0 {
  %3 = load i8, ptr @H5_libinit_g, align 1
  %4 = trunc i8 %3 to i1
  %5 = load i8, ptr @H5_libterm_g, align 1
  %6 = trunc i8 %5 to i1
  %7 = select i1 %4, i1 true, i1 %6
  br i1 %7, label %15, label %8

8:                                                ; preds = %2
  %9 = tail call i32 @H5_init_library() #6
  %10 = icmp slt i32 %9, 0
  br i1 %10, label %11, label %15

11:                                               ; preds = %8
  %12 = load i64, ptr @H5E_FUNC_g, align 8
  %13 = load i64, ptr @H5E_CANTINIT_g, align 8
  %14 = tail call i32 (ptr, ptr, i32, i64, i64, ptr, ...) @H5E_printf_stack(ptr noundef nonnull @.str.1, ptr noundef nonnull @__func__.H5Pget_userblock, i32 noundef 362, i64 noundef %12, i64 noundef %13, ptr noundef nonnull @.str.2) #6
  br label %.thread22

15:                                               ; preds = %8, %2
  %16 = tail call i32 @H5CX_push() #6
  %17 = icmp slt i32 %16, 0
  br i1 %17, label %18, label %22

18:                                               ; preds = %15
  %19 = load i64, ptr @H5E_FUNC_g, align 8
  %20 = load i64, ptr @H5E_CANTSET_g, align 8
  %21 = tail call i32 (ptr, ptr, i32, i64, i64, ptr, ...) @H5E_printf_stack(ptr noundef nonnull @.str.1, ptr noundef nonnull @__func__.H5Pget_userblock, i32 noundef 362, i64 noundef %19, i64 noundef %20, ptr noundef nonnull @.str.3) #6
  br label %.thread22

22:                                               ; preds = %15
  %23 = tail call i32 @H5E_clear_stack() #6
  %24 = load i64, ptr @H5P_CLS_FILE_CREATE_ID_g, align 8
  %25 = tail call ptr @H5P_object_verify(i64 noundef %0, i64 noundef %24) #6
  %26 = icmp eq ptr %25, null
  br i1 %26, label %27, label %31

27:                                               ; preds = %22
  %28 = load i64, ptr @H5E_ID_g, align 8
  %29 = load i64, ptr @H5E_BADID_g, align 8
  %30 = tail call i32 (ptr, ptr, i32, i64, i64, ptr, ...) @H5E_printf_stack(ptr noundef nonnull @.str.1, ptr noundef nonnull @__func__.H5Pget_userblock, i32 noundef 366, i64 noundef %28, i64 noundef %29, ptr noundef nonnull @.str.6) #6
  br label %.thread28

31:                                               ; preds = %22
  %.not = icmp eq ptr %1, null
  br i1 %.not, label %40, label %32

32:                                               ; preds = %31
  %33 = tail call i32 @H5P_get(ptr noundef nonnull %25, ptr noundef nonnull @.str.7, ptr noundef nonnull %1) #6
  %34 = icmp slt i32 %33, 0
  br i1 %34, label %35, label %40

35:                                               ; preds = %32
  %36 = load i64, ptr @H5E_PLIST_g, align 8
  %37 = load i64, ptr @H5E_CANTGET_g, align 8
  %38 = tail call i32 (ptr, ptr, i32, i64, i64, ptr, ...) @H5E_printf_stack(ptr noundef nonnull @.str.1, ptr noundef nonnull @__func__.H5Pget_userblock, i32 noundef 371, i64 noundef %36, i64 noundef %37, ptr noundef nonnull @.str.9) #6
  br label %.thread28

.thread28:                                        ; preds = %35, %27
  %39 = tail call i32 @H5CX_pop(i1 noundef zeroext true) #6
  br label %.thread22

40:                                               ; preds = %31, %32
  %41 = tail call i32 @H5CX_pop(i1 noundef zeroext true) #6
  br label %43

.thread22:                                        ; preds = %18, %11, %.thread28
  %42 = tail call i32 @H5E_dump_api_stack() #6
  br label %43

43:                                               ; preds = %40, %.thread22
  %.0111725 = phi i32 [ -1, %.thread22 ], [ 0, %40 ]
  ret i32 %.0111725
}